target datalayout = "e-m:e-p270:32:32-p271:32:32-p272:64:64-i64:64-i128:128-f80:128-n8:16:32:64-S128"
target triple = "x86_64-pc-linux-gnu"

%struct.SRBRoot = type { ptr, ptr, i32, i32, i8, i8, i8, ptr, ptr, i32, i32, i32, i32, i32, %"class.icu_77::UnicodeString", i32, ptr, i32, i32, i32, ptr }
%"class.icu_77::UnicodeString" = type { %"class.icu_77::Replaceable", %"union.icu_77::UnicodeString::StackBufferOrFields" }
%"class.icu_77::Replaceable" = type { %"class.icu_77::UObject" }
%"class.icu_77::UObject" = type { ptr }
%"union.icu_77::UnicodeString::StackBufferOrFields" = type { %struct.anon.0, [32 x i8] }
%struct.anon.0 = type { i16, i32, i32, ptr }

; Function Attrs: inlinehint mustprogress nounwind uwtable
define internal noundef signext i8 @_ZL9U_SUCCESS10UErrorCode(i32 noundef %0) #9 {
  %2 = alloca i32, align 4
  store i32 %0, ptr %2, align 4, !tbaa !45
  %3 = load i32, ptr %2, align 4, !tbaa !45
  %4 = icmp sle i32 %3, 0
  %5 = zext i1 %4 to i8
  ret i8 %5
}

; Function Attrs: mustprogress uwtable
define dso_local noundef i32 @_ZN7SRBRoot11addKeyBytesEPKciR10UErrorCode(ptr noundef nonnull align 8 dereferenceable(176) %0, ptr noundef %1, i32 noundef %2, ptr noundef nonnull align 4 dereferenceable(4) %3) #5 align 2 {
  %5 = alloca i32, align 4
  %6 = alloca ptr, align 8
  %7 = alloca ptr, align 8
  %8 = alloca i32, align 4
  %9 = alloca ptr, align 8
  %10 = alloca i32, align 4
  %11 = alloca i32, align 4
  store ptr %0, ptr %6, align 8, !tbaa !39
  store ptr %1, ptr %7, align 8, !tbaa !41
  store i32 %2, ptr %8, align 4, !tbaa !23
  store ptr %3, ptr %9, align 8, !tbaa !44
  %12 = load ptr, ptr %6, align 8
  call void @llvm.lifetime.start.p0(i64 4, ptr %10) #3
  %13 = load ptr, ptr %9, align 8, !tbaa !44
  %14 = load i32, ptr %13, align 4, !tbaa !45
  %15 = call noundef signext i8 @_ZL9U_FAILURE10UErrorCode(i32 noundef %14)
  %16 = icmp ne i8 %15, 0
  br i1 %16, label %17, label %18

17:                                               ; preds = %4
  store i32 -1, ptr %5, align 4
  store i32 1, ptr %11, align 4
  br label %77

18:                                               ; preds = %4
  %19 = load i32, ptr %8, align 4, !tbaa !23
  %20 = icmp slt i32 %19, 0
  br i1 %20, label %27, label %21

21:                                               ; preds = %18
  %22 = load ptr, ptr %7, align 8, !tbaa !41
  %23 = icmp eq ptr %22, null
  br i1 %23, label %24, label %29

24:                                               ; preds = %21
  %25 = load i32, ptr %8, align 4, !tbaa !23
  %26 = icmp ne i32 %25, 0
  br i1 %26, label %27, label %29

27:                                               ; preds = %24, %18
  %28 = load ptr, ptr %9, align 8, !tbaa !44
  store i32 1, ptr %28, align 4, !tbaa !45
  store i32 -1, ptr %5, align 4
  store i32 1, ptr %11, align 4
  br label %77

29:                                               ; preds = %24, %21
  %30 = load i32, ptr %8, align 4, !tbaa !23
  %31 = icmp eq i32 %30, 0
  br i1 %31, label %32, label %35

32:                                               ; preds = %29
  %33 = getelementptr inbounds nuw %struct.SRBRoot, ptr %12, i32 0, i32 10
  %34 = load i32, ptr %33, align 4, !tbaa !139
  store i32 %34, ptr %5, align 4
  store i32 1, ptr %11, align 4
  br label %77

35:                                               ; preds = %29
  %36 = getelementptr inbounds nuw %struct.SRBRoot, ptr %12, i32 0, i32 10
  %37 = load i32, ptr %36, align 4, !tbaa !139
  store i32 %37, ptr %10, align 4, !tbaa !23
  %38 = load i32, ptr %8, align 4, !tbaa !23
  %39 = getelementptr inbounds nuw %struct.SRBRoot, ptr %12, i32 0, i32 10
  %40 = load i32, ptr %39, align 4, !tbaa !139
  %41 = add nsw i32 %40, %38
  store i32 %41, ptr %39, align 4, !tbaa !139
  %42 = getelementptr inbounds nuw %struct.SRBRoot, ptr %12, i32 0, i32 10
  %43 = load i32, ptr %42, align 4, !tbaa !139
  %44 = getelementptr inbounds nuw %struct.SRBRoot, ptr %12, i32 0, i32 11
  %45 = load i32, ptr %44, align 8, !tbaa !204
  %46 = icmp sge i32 %43, %45
  br i1 %46, label %47, label %64

47:                                               ; preds = %35
  %48 = getelementptr inbounds nuw %struct.SRBRoot, ptr %12, i32 0, i32 11
  %49 = load i32, ptr %48, align 8, !tbaa !204
  %50 = add nsw i32 %49, 65536
  store i32 %50, ptr %48, align 8, !tbaa !204
  %51 = getelementptr inbounds nuw %struct.SRBRoot, ptr %12, i32 0, i32 7
  %52 = load ptr, ptr %51, align 8, !tbaa !64
  %53 = getelementptr inbounds nuw %struct.SRBRoot, ptr %12, i32 0, i32 11
  %54 = load i32, ptr %53, align 8, !tbaa !204
  %55 = sext i32 %54 to i64
  %56 = call ptr @uprv_realloc_77(ptr noundef %52, i64 noundef %55) #26
  %57 = getelementptr inbounds nuw %struct.SRBRoot, ptr %12, i32 0, i32 7
  store ptr %56, ptr %57, align 8, !tbaa !64
  %58 = getelementptr inbounds nuw %struct.SRBRoot, ptr %12, i32 0, i32 7
  %59 = load ptr, ptr %58, align 8, !tbaa !64
  %60 = icmp eq ptr %59, null
  br i1 %60, label %61, label %63

61:                                               ; preds = %47
  %62 = load ptr, ptr %9, align 8, !tbaa !44
  store i32 7, ptr %62, align 4, !tbaa !45
  store i32 -1, ptr %5, align 4
  store i32 1, ptr %11, align 4
  br label %77

63:                                               ; preds = %47
  br label %64

64:                                               ; preds = %63, %35
  br label %65

65:                                               ; preds = %64
  %66 = getelementptr inbounds nuw %struct.SRBRoot, ptr %12, i32 0, i32 7
  %67 = load ptr, ptr %66, align 8, !tbaa !64
  %68 = load i32, ptr %10, align 4, !tbaa !23
  %69 = sext i32 %68 to i64
  %70 = getelementptr inbounds i8, ptr %67, i64 %69
  %71 = load ptr, ptr %7, align 8, !tbaa !41
  %72 = load i32, ptr %8, align 4, !tbaa !23
  %73 = sext i32 %72 to i64
  call void @llvm.memcpy.p0.p0.i64(ptr align 1 %70, ptr align 1 %71, i64 %73, i1 false)
  br label %74

74:                                               ; preds = %65
  br label %75

75:                                               ; preds = %74
  %76 = load i32, ptr %10, align 4, !tbaa !23
  store i32 %76, ptr %5, align 4
  store i32 1, ptr %11, align 4
  br label %77

77:                                               ; preds = %75, %61, %32, %27, %17
  call void @llvm.lifetime.end.p0(i64 4, ptr %10) #3
  %78 = load i32, ptr %5, align 4
  ret i32 %78
}

; Function Attrs: inlinehint mustprogress nounwind uwtable
define internal noundef signext i8 @_ZL9U_FAILURE10UErrorCode(i32 noundef %0) #9 {
  %2 = alloca i32, align 4
  store i32 %0, ptr %2, align 4, !tbaa !45
  %3 = load i32, ptr %2, align 4, !tbaa !45
  %4 = icmp sgt i32 %3, 0
  %5 = zext i1 %4 to i8
  ret i8 %5
}

; Function Attrs: mustprogress uwtable
define dso_local noundef i32 @_ZN7SRBRoot6addTagEPKcR10UErrorCode(ptr noundef nonnull align 8 dereferenceable(176) %0, ptr noundef %1, ptr noundef nonnull align 4 dereferenceable(4) %2) #5 align 2 {
  %4 = alloca i32, align 4
  %5 = alloca ptr, align 8
  %6 = alloca ptr, align 8
  %7 = alloca ptr, align 8
  %8 = alloca i32, align 4
  %9 = alloca i32, align 4
  store ptr %0, ptr %5, align 8, !tbaa !39
  store ptr %1, ptr %6, align 8, !tbaa !41
  store ptr %2, ptr %7, align 8, !tbaa !44
  %10 = load ptr, ptr %5, align 8
  call void @llvm.lifetime.start.p0(i64 4, ptr %8) #3
  %11 = load ptr, ptr %7, align 8, !tbaa !44
  %12 = load i32, ptr %11, align 4, !tbaa !45
  %13 = call noundef signext i8 @_ZL9U_FAILURE10UErrorCode(i32 noundef %12)
  %14 = icmp ne i8 %13, 0
  br i1 %14, label %15, label %16

15:                                               ; preds = %3
  store i32 -1, ptr %4, align 4
  store i32 1, ptr %9, align 4
  br label %38

16:                                               ; preds = %3
  %17 = load ptr, ptr %6, align 8, !tbaa !41
  %18 = icmp eq ptr %17, null
  br i1 %18, label %19, label %20

19:                                               ; preds = %16
  store i32 -1, ptr %4, align 4
  store i32 1, ptr %9, align 4
  br label %38

20:                                               ; preds = %16
  %21 = load ptr, ptr %6, align 8, !tbaa !41
  %22 = load ptr, ptr %6, align 8, !tbaa !41
  %23 = call i64 @strlen(ptr noundef %22) #22
  %24 = add i64 %23, 1
  %25 = trunc i64 %24 to i32
  %26 = load ptr, ptr %7, align 8, !tbaa !44
  %27 = call noundef i32 @_ZN7SRBRoot11addKeyBytesEPKciR10UErrorCode(ptr noundef nonnull align 8 dereferenceable(176) %10, ptr noundef %21, i32 noundef %25, ptr noundef nonnull align 4 dereferenceable(4) %26)
  store i32 %27, ptr %8, align 4, !tbaa !23
  %28 = load ptr, ptr %7, align 8, !tbaa !44
  %29 = load i32, ptr %28, align 4, !tbaa !45
  %30 = call noundef signext i8 @_ZL9U_SUCCESS10UErrorCode(i32 noundef %29)
  %31 = icmp ne i8 %30, 0
  br i1 %31, label %32, label %36

32:                                               ; preds = %20
  %33 = getelementptr inbounds nuw %struct.SRBRoot, ptr %10, i32 0, i32 12
  %34 = load i32, ptr %33, align 4, !tbaa !47
  %35 = add nsw i32 %34, 1
  store i32 %35, ptr %33, align 4, !tbaa !47
  br label %36

36:                                               ; preds = %32, %20
  %37 = load i32, ptr %8, align 4, !tbaa !23
  store i32 %37, ptr %4, align 4
  store i32 1, ptr %9, align 4
  br label %38

38:                                               ; preds = %36, %19, %15
  call void @llvm.lifetime.end.p0(i64 4, ptr %8) #3
  %39 = load i32, ptr %4, align 4
  ret i32 %39
}