; Function Attrs: mustprogress uwtable
define dso_local noundef i32 @_ZN7SRBRoot6addTagEPKcR10UErrorCode(ptr noundef nonnull align 8 captures(none) dereferenceable(176) %0, ptr noundef readonly %1, ptr noundef nonnull align 4 captures(none) dereferenceable(4) %2) local_unnamed_addr #7 align 2 {
  %4 = load i32, ptr %2, align 4, !tbaa !22
  %5 = icmp sgt i32 %4, 0
  %6 = icmp eq ptr %1, null
  %or.cond = or i1 %6, %5
  br i1 %or.cond, label %_ZN7SRBRoot11addKeyBytesEPKciR10UErrorCode.exit.thread, label %7

7:                                                ; preds = %3
  %8 = tail call i64 @strlen(ptr noundef nonnull dereferenceable(1) %1) #32
  %9 = trunc i64 %8 to i32
  %10 = add i32 %9, 1
  %11 = icmp slt i32 %10, 0
  br i1 %11, label %12, label %13

12:                                               ; preds = %7
  store i32 1, ptr %2, align 4, !tbaa !22
  br label %_ZN7SRBRoot11addKeyBytesEPKciR10UErrorCode.exit.thread

13:                                               ; preds = %7
  %14 = icmp eq i32 %10, 0
  %15 = getelementptr inbounds nuw i8, ptr %0, i64 52
  %16 = load i32, ptr %15, align 4, !tbaa !24
  br i1 %14, label %_ZN7SRBRoot11addKeyBytesEPKciR10UErrorCode.exit.thread11, label %17

17:                                               ; preds = %13
  %18 = add nsw i32 %16, %10
  store i32 %18, ptr %15, align 4, !tbaa !24
  %19 = getelementptr inbounds nuw i8, ptr %0, i64 56
  %20 = load i32, ptr %19, align 8, !tbaa !33
  %.not16.i = icmp slt i32 %18, %20
  br i1 %.not16.i, label %._crit_edge.i, label %21

._crit_edge.i:                                    ; preds = %17
  %.phi.trans.insert.i = getelementptr inbounds nuw i8, ptr %0, i64 32
  %.pre.i = load ptr, ptr %.phi.trans.insert.i, align 8, !tbaa !34
  br label %_ZN7SRBRoot11addKeyBytesEPKciR10UErrorCode.exit

21:                                               ; preds = %17
  %22 = add nsw i32 %20, 65536
  store i32 %22, ptr %19, align 8, !tbaa !33
  %23 = getelementptr inbounds nuw i8, ptr %0, i64 32
  %24 = load ptr, ptr %23, align 8, !tbaa !34
  %25 = sext i32 %22 to i64
  %26 = tail call ptr @uprv_realloc_77(ptr noundef %24, i64 noundef %25) #33
  store ptr %26, ptr %23, align 8, !tbaa !34
  %27 = icmp eq ptr %26, null
  br i1 %27, label %28, label %_ZN7SRBRoot11addKeyBytesEPKciR10UErrorCode.exit

28:                                               ; preds = %21
  store i32 7, ptr %2, align 4, !tbaa !22
  br label %_ZN7SRBRoot11addKeyBytesEPKciR10UErrorCode.exit.thread

_ZN7SRBRoot11addKeyBytesEPKciR10UErrorCode.exit:  ; preds = %._crit_edge.i, %21
  %29 = phi ptr [ %.pre.i, %._crit_edge.i ], [ %26, %21 ]
  %30 = sext i32 %16 to i64
  %31 = getelementptr inbounds i8, ptr %29, i64 %30
  %32 = zext nneg i32 %10 to i64
  tail call void @llvm.memcpy.p0.p0.i64(ptr align 1 %31, ptr nonnull readonly align 1 %1, i64 %32, i1 false)
  %.pre = load i32, ptr %2, align 4, !tbaa !22
  %33 = icmp sgt i32 %.pre, 0
  br i1 %33, label %_ZN7SRBRoot11addKeyBytesEPKciR10UErrorCode.exit.thread, label %_ZN7SRBRoot11addKeyBytesEPKciR10UErrorCode.exit.thread11

_ZN7SRBRoot11addKeyBytesEPKciR10UErrorCode.exit.thread11: ; preds = %13, %_ZN7SRBRoot11addKeyBytesEPKciR10UErrorCode.exit
  %34 = getelementptr inbounds nuw i8, ptr %0, i64 60
  %35 = load i32, ptr %34, align 4, !tbaa !35
  %36 = add nsw i32 %35, 1
  store i32 %36, ptr %34, align 4, !tbaa !35
  br label %_ZN7SRBRoot11addKeyBytesEPKciR10UErrorCode.exit.thread

_ZN7SRBRoot11addKeyBytesEPKciR10UErrorCode.exit.thread: ; preds = %28, %12, %_ZN7SRBRoot11addKeyBytesEPKciR10UErrorCode.exit, %_ZN7SRBRoot11addKeyBytesEPKciR10UErrorCode.exit.thread11, %3
  %.0 = phi i32 [ -1, %3 ], [ %16, %_ZN7SRBRoot11addKeyBytesEPKciR10UErrorCode.exit.thread11 ], [ %16, %_ZN7SRBRoot11addKeyBytesEPKciR10UErrorCode.exit ], [ -1, %12 ], [ -1, %28 ]
  ret i32 %.0
}